target datalayout = "e-m:e-p270:32:32-p271:32:32-p272:64:64-i64:64-i128:128-f80:128-n8:16:32:64-S128"
target triple = "x86_64-pc-linux-gnu"

%struct.FilterParams = type { i32, double, ptr, ptr, ptr }

; Function Attrs: nounwind uwtable
define internal void @blend_pinlight_8bit(ptr noundef %0, i64 noundef %1, ptr noundef %2, i64 noundef %3, ptr noundef %4, i64 noundef %5, i64 noundef %6, i64 noundef %7, ptr noundef %8, ptr noundef %9) #0 {
  %11 = alloca ptr, align 8
  %12 = alloca i64, align 8
  %13 = alloca ptr, align 8
  %14 = alloca i64, align 8
  %15 = alloca ptr, align 8
  %16 = alloca i64, align 8
  %17 = alloca i64, align 8
  %18 = alloca i64, align 8
  %19 = alloca ptr, align 8
  %20 = alloca ptr, align 8
  %21 = alloca ptr, align 8
  %22 = alloca ptr, align 8
  %23 = alloca ptr, align 8
  %24 = alloca float, align 4
  %25 = alloca i32, align 4
  %26 = alloca i32, align 4
  %27 = alloca i32, align 4
  store ptr %0, ptr %11, align 8, !tbaa !46
  store i64 %1, ptr %12, align 8, !tbaa !88
  store ptr %2, ptr %13, align 8, !tbaa !46
  store i64 %3, ptr %14, align 8, !tbaa !88
  store ptr %4, ptr %15, align 8, !tbaa !46
  store i64 %5, ptr %16, align 8, !tbaa !88
  store i64 %6, ptr %17, align 8, !tbaa !88
  store i64 %7, ptr %18, align 8, !tbaa !88
  store ptr %8, ptr %19, align 8, !tbaa !77
  store ptr %9, ptr %20, align 8, !tbaa !89
  call void @llvm.lifetime.start.p0(i64 8, ptr %21) #12
  %28 = load ptr, ptr %11, align 8, !tbaa !46
  store ptr %28, ptr %21, align 8, !tbaa !46
  call void @llvm.lifetime.start.p0(i64 8, ptr %22) #12
  %29 = load ptr, ptr %13, align 8, !tbaa !46
  store ptr %29, ptr %22, align 8, !tbaa !46
  call void @llvm.lifetime.start.p0(i64 8, ptr %23) #12
  %30 = load ptr, ptr %15, align 8, !tbaa !46
  store ptr %30, ptr %23, align 8, !tbaa !46
  call void @llvm.lifetime.start.p0(i64 4, ptr %24) #12
  %31 = load ptr, ptr %19, align 8, !tbaa !77
  %32 = getelementptr inbounds nuw %struct.FilterParams, ptr %31, i32 0, i32 1
  %33 = load double, ptr %32, align 8, !tbaa !82
  %34 = fptrunc nsz double %33 to float
  store float %34, ptr %24, align 4, !tbaa !99
  %35 = load i64, ptr %16, align 8, !tbaa !88
  %36 = udiv i64 %35, 1
  store i64 %36, ptr %16, align 8, !tbaa !88
  %37 = load i64, ptr %12, align 8, !tbaa !88
  %38 = udiv i64 %37, 1
  store i64 %38, ptr %12, align 8, !tbaa !88
  %39 = load i64, ptr %14, align 8, !tbaa !88
  %40 = udiv i64 %39, 1
  store i64 %40, ptr %14, align 8, !tbaa !88
  call void @llvm.lifetime.start.p0(i64 4, ptr %25) #12
  store i32 0, ptr %25, align 4, !tbaa !37
  br label %41

41:                                               ; preds = %165, %10
  %42 = load i32, ptr %25, align 4, !tbaa !37
  %43 = sext i32 %42 to i64
  %44 = load i64, ptr %18, align 8, !tbaa !88
  %45 = icmp slt i64 %43, %44
  br i1 %45, label %47, label %46

46:                                               ; preds = %41
  store i32 2, ptr %26, align 4
  call void @llvm.lifetime.end.p0(i64 4, ptr %25) #12
  br label %168

47:                                               ; preds = %41
  call void @llvm.lifetime.start.p0(i64 4, ptr %27) #12
  store i32 0, ptr %27, align 4, !tbaa !37
  br label %48

48:                                               ; preds = %152, %47
  %49 = load i32, ptr %27, align 4, !tbaa !37
  %50 = sext i32 %49 to i64
  %51 = load i64, ptr %17, align 8, !tbaa !88
  %52 = icmp slt i64 %50, %51
  br i1 %52, label %54, label %53

53:                                               ; preds = %48
  store i32 5, ptr %26, align 4
  call void @llvm.lifetime.end.p0(i64 4, ptr %27) #12
  br label %155

54:                                               ; preds = %48
  %55 = load ptr, ptr %21, align 8, !tbaa !46
  %56 = load i32, ptr %27, align 4, !tbaa !37
  %57 = sext i32 %56 to i64
  %58 = getelementptr inbounds i8, ptr %55, i64 %57
  %59 = load i8, ptr %58, align 1, !tbaa !109
  %60 = zext i8 %59 to i32
  %61 = sitofp i32 %60 to float
  %62 = load ptr, ptr %22, align 8, !tbaa !46
  %63 = load i32, ptr %27, align 4, !tbaa !37
  %64 = sext i32 %63 to i64
  %65 = getelementptr inbounds i8, ptr %62, i64 %64
  %66 = load i8, ptr %65, align 1, !tbaa !109
  %67 = zext i8 %66 to i32
  %68 = icmp slt i32 %67, 128
  br i1 %68, label %69, label %101

69:                                               ; preds = %54
  %70 = load ptr, ptr %21, align 8, !tbaa !46
  %71 = load i32, ptr %27, align 4, !tbaa !37
  %72 = sext i32 %71 to i64
  %73 = getelementptr inbounds i8, ptr %70, i64 %72
  %74 = load i8, ptr %73, align 1, !tbaa !109
  %75 = zext i8 %74 to i32
  %76 = load ptr, ptr %22, align 8, !tbaa !46
  %77 = load i32, ptr %27, align 4, !tbaa !37
  %78 = sext i32 %77 to i64
  %79 = getelementptr inbounds i8, ptr %76, i64 %78
  %80 = load i8, ptr %79, align 1, !tbaa !109
  %81 = zext i8 %80 to i32
  %82 = mul nsw i32 2, %81
  %83 = icmp sgt i32 %75, %82
  br i1 %83, label %84, label %92

84:                                               ; preds = %69
  %85 = load ptr, ptr %22, align 8, !tbaa !46
  %86 = load i32, ptr %27, align 4, !tbaa !37
  %87 = sext i32 %86 to i64
  %88 = getelementptr inbounds i8, ptr %85, i64 %87
  %89 = load i8, ptr %88, align 1, !tbaa !109
  %90 = zext i8 %89 to i32
  %91 = mul nsw i32 2, %90
  br label %99

92:                                               ; preds = %69
  %93 = load ptr, ptr %21, align 8, !tbaa !46
  %94 = load i32, ptr %27, align 4, !tbaa !37
  %95 = sext i32 %94 to i64
  %96 = getelementptr inbounds i8, ptr %93, i64 %95
  %97 = load i8, ptr %96, align 1, !tbaa !109
  %98 = zext i8 %97 to i32
  br label %99

99:                                               ; preds = %92, %84
  %100 = phi i32 [ %91, %84 ], [ %98, %92 ]
  br label %135

101:                                              ; preds = %54
  %102 = load ptr, ptr %21, align 8, !tbaa !46
  %103 = load i32, ptr %27, align 4, !tbaa !37
  %104 = sext i32 %103 to i64
  %105 = getelementptr inbounds i8, ptr %102, i64 %104
  %106 = load i8, ptr %105, align 1, !tbaa !109
  %107 = zext i8 %106 to i32
  %108 = load ptr, ptr %22, align 8, !tbaa !46
  %109 = load i32, ptr %27, align 4, !tbaa !37
  %110 = sext i32 %109 to i64
  %111 = getelementptr inbounds i8, ptr %108, i64 %110
  %112 = load i8, ptr %111, align 1, !tbaa !109
  %113 = zext i8 %112 to i32
  %114 = sub nsw i32 %113, 128
  %115 = mul nsw i32 2, %114
  %116 = icmp sgt i32 %107, %115
  br i1 %116, label %117, label %124

117:                                              ; preds = %101
  %118 = load ptr, ptr %21, align 8, !tbaa !46
  %119 = load i32, ptr %27, align 4, !tbaa !37
  %120 = sext i32 %119 to i64
  %121 = getelementptr inbounds i8, ptr %118, i64 %120
  %122 = load i8, ptr %121, align 1, !tbaa !109
  %123 = zext i8 %122 to i32
  br label %133

124:                                              ; preds = %101
  %125 = load ptr, ptr %22, align 8, !tbaa !46
  %126 = load i32, ptr %27, align 4, !tbaa !37
  %127 = sext i32 %126 to i64
  %128 = getelementptr inbounds i8, ptr %125, i64 %127
  %129 = load i8, ptr %128, align 1, !tbaa !109
  %130 = zext i8 %129 to i32
  %131 = sub nsw i32 %130, 128
  %132 = mul nsw i32 2, %131
  br label %133

133:                                              ; preds = %124, %117
  %134 = phi i32 [ %123, %117 ], [ %132, %124 ]
  br label %135

135:                                              ; preds = %133, %99
  %136 = phi i32 [ %100, %99 ], [ %134, %133 ]
  %137 = load ptr, ptr %21, align 8, !tbaa !46
  %138 = load i32, ptr %27, align 4, !tbaa !37
  %139 = sext i32 %138 to i64
  %140 = getelementptr inbounds i8, ptr %137, i64 %139
  %141 = load i8, ptr %140, align 1, !tbaa !109
  %142 = zext i8 %141 to i32
  %143 = sub nsw i32 %136, %142
  %144 = sitofp i32 %143 to float
  %145 = load float, ptr %24, align 4, !tbaa !99
  %146 = call nsz float @llvm.fmuladd.f32(float %144, float %145, float %61)
  %147 = fptoui float %146 to i8
  %148 = load ptr, ptr %23, align 8, !tbaa !46
  %149 = load i32, ptr %27, align 4, !tbaa !37
  %150 = sext i32 %149 to i64
  %151 = getelementptr inbounds i8, ptr %148, i64 %150
  store i8 %147, ptr %151, align 1, !tbaa !109
  br label %152

152:                                              ; preds = %135
  %153 = load i32, ptr %27, align 4, !tbaa !37
  %154 = add nsw i32 %153, 1
  store i32 %154, ptr %27, align 4, !tbaa !37
  br label %48, !llvm.loop !164

155:                                              ; preds = %53
  %156 = load i64, ptr %16, align 8, !tbaa !88
  %157 = load ptr, ptr %23, align 8, !tbaa !46
  %158 = getelementptr inbounds i8, ptr %157, i64 %156
  store ptr %158, ptr %23, align 8, !tbaa !46
  %159 = load i64, ptr %12, align 8, !tbaa !88
  %160 = load ptr, ptr %21, align 8, !tbaa !46
  %161 = getelementptr inbounds i8, ptr %160, i64 %159
  store ptr %161, ptr %21, align 8, !tbaa !46
  %162 = load i64, ptr %14, align 8, !tbaa !88
  %163 = load ptr, ptr %22, align 8, !tbaa !46
  %164 = getelementptr inbounds i8, ptr %163, i64 %162
  store ptr %164, ptr %22, align 8, !tbaa !46
  br label %165

165:                                              ; preds = %155
  %166 = load i32, ptr %25, align 4, !tbaa !37
  %167 = add nsw i32 %166, 1
  store i32 %167, ptr %25, align 4, !tbaa !37
  br label %41, !llvm.loop !165

168:                                              ; preds = %46
  call void @llvm.lifetime.end.p0(i64 4, ptr %24) #12
  call void @llvm.lifetime.end.p0(i64 8, ptr %23) #12
  call void @llvm.lifetime.end.p0(i64 8, ptr %22) #12
  call void @llvm.lifetime.end.p0(i64 8, ptr %21) #12
  ret void
}