; Function Attrs: nofree norecurse nosync nounwind memory(argmem: readwrite) uwtable
define internal void @blend_pinlight_8bit(ptr noundef readonly captures(none) %0, i64 noundef %1, ptr noundef readonly captures(none) %2, i64 noundef %3, ptr noundef writeonly captures(none) %4, i64 noundef %5, i64 noundef %6, i64 noundef %7, ptr noundef readonly captures(none) %8, ptr readnone captures(none) %9) #6 {
  %11 = getelementptr inbounds nuw i8, ptr %8, i64 8
  %12 = load double, ptr %11, align 8, !tbaa !70
  %13 = fptrunc nsz double %12 to float
  %14 = icmp sgt i64 %7, 0
  %15 = icmp sgt i64 %6, 0
  %or.cond = and i1 %14, %15
  br i1 %or.cond, label %.preheader.us, label %._crit_edge59

.preheader.us:                                    ; preds = %10, %._crit_edge.us
  %indvars.iv63 = phi i64 [ %indvars.iv.next64, %._crit_edge.us ], [ 0, %10 ]
  %.04457.us = phi ptr [ %36, %._crit_edge.us ], [ %4, %10 ]
  %.04556.us = phi ptr [ %38, %._crit_edge.us ], [ %2, %10 ]
  %.04655.us = phi ptr [ %37, %._crit_edge.us ], [ %0, %10 ]
  br label %16

16:                                               ; preds = %.preheader.us, %29
  %indvars.iv = phi i64 [ 0, %.preheader.us ], [ %indvars.iv.next, %29 ]
  %17 = getelementptr inbounds nuw i8, ptr %.04655.us, i64 %indvars.iv
  %18 = load i8, ptr %17, align 1, !tbaa !89
  %19 = zext i8 %18 to i32
  %20 = uitofp i8 %18 to float
  %21 = getelementptr inbounds nuw i8, ptr %.04556.us, i64 %indvars.iv
  %22 = load i8, ptr %21, align 1, !tbaa !89
  %23 = zext i8 %22 to i32
  %24 = icmp sgt i8 %22, -1
  %25 = shl nuw nsw i32 %23, 1
  br i1 %24, label %28, label %26

26:                                               ; preds = %16
  %27 = add nsw i32 %25, -256
  %.53.us = tail call i32 @llvm.smax.i32(i32 %27, i32 %19)
  br label %29

28:                                               ; preds = %16
  %..us = tail call i32 @llvm.umin.i32(i32 %25, i32 %19)
  br label %29

29:                                               ; preds = %28, %26
  %30 = phi i32 [ %..us, %28 ], [ %.53.us, %26 ]
  %31 = sub nsw i32 %30, %19
  %32 = sitofp i32 %31 to float
  %33 = tail call nsz float @llvm.fmuladd.f32(float %32, float %13, float %20)
  %34 = fptoui float %33 to i8
  %35 = getelementptr inbounds nuw i8, ptr %.04457.us, i64 %indvars.iv
  store i8 %34, ptr %35, align 1, !tbaa !89
  %indvars.iv.next = add nuw nsw i64 %indvars.iv, 1
  %exitcond.not = icmp eq i64 %indvars.iv.next, %6
  br i1 %exitcond.not, label %._crit_edge.us, label %16, !llvm.loop !144

._crit_edge.us:                                   ; preds = %29
  %36 = getelementptr inbounds i8, ptr %.04457.us, i64 %5
  %37 = getelementptr inbounds i8, ptr %.04655.us, i64 %1
  %38 = getelementptr inbounds i8, ptr %.04556.us, i64 %3
  %indvars.iv.next64 = add nuw nsw i64 %indvars.iv63, 1
  %exitcond66.not = icmp eq i64 %indvars.iv.next64, %7
  br i1 %exitcond66.not, label %._crit_edge59, label %.preheader.us, !llvm.loop !145

._crit_edge59:                                    ; preds = %._crit_edge.us, %10
  ret void
}